; Function Attrs: mustprogress nofree norecurse nosync nounwind willreturn memory(none) uwtable
define noundef nonnull ptr @X509_verify_cert_error_string(i64 noundef %0) local_unnamed_addr #0 {
  %2 = trunc i64 %0 to i32
  %3 = icmp ult i32 %2, 96
  br i1 %3, label %switch.lookup, label %5

switch.lookup:                                    ; preds = %1
  %4 = and i64 %0, 127
  %switch.gep = getelementptr inbounds nuw [96 x ptr], ptr @switch.table.X509_verify_cert_error_string, i64 0, i64 %4
  %switch.load = load ptr, ptr %switch.gep, align 8
  br label %5

5:                                                ; preds = %1, %switch.lookup
  %.0 = phi ptr [ %switch.load, %switch.lookup ], [ @.str.96, %1 ]
  ret ptr %.0
}